target datalayout = "e-m:e-p270:32:32-p271:32:32-p272:64:64-i64:64-i128:128-f80:128-n8:16:32:64-S128"
target triple = "x86_64-pc-linux-gnu"

; Function Attrs: nounwind uwtable
define i32 @H5is_library_threadsafe(ptr noundef %0) #0 {
  %2 = alloca ptr, align 8
  %3 = alloca i32, align 4
  %4 = alloca i8, align 1
  store ptr %0, ptr %2, align 8
  store i32 0, ptr %3, align 4
  store i8 0, ptr %4, align 1
  %5 = load ptr, ptr %2, align 8
  %6 = icmp ne ptr %5, null
  br i1 %6, label %7, label %9

7:                                                ; preds = %1
  %8 = load ptr, ptr %2, align 8
  store i8 0, ptr %8, align 1
  br label %10

9:                                                ; preds = %1
  store i32 -1, ptr %3, align 4
  br label %10

10:                                               ; preds = %9, %7
  %11 = load i8, ptr %4, align 1
  %12 = trunc i8 %11 to i1
  %13 = xor i1 %12, true
  %14 = xor i1 %13, true
  %15 = zext i1 %14 to i32
  %16 = sext i32 %15 to i64
  %17 = icmp ne i64 %16, 0
  br i1 %17, label %18, label %20

18:                                               ; preds = %10
  %19 = call i32 @H5E_dump_api_stack()
  br label %20

20:                                               ; preds = %18, %10
  %21 = load i32, ptr %3, align 4
  ret i32 %21
}