; Function Attrs: mustprogress nofree norecurse nosync nounwind willreturn memory(argmem: write) uwtable
define range(i32 -1, 1) i32 @H5is_library_threadsafe(ptr noundef writeonly %0) local_unnamed_addr #16 {
  %.not = icmp eq ptr %0, null
  br i1 %.not, label %3, label %2

2:                                                ; preds = %1
  store i8 0, ptr %0, align 1
  br label %3

3:                                                ; preds = %2, %1
  %.0 = phi i32 [ 0, %2 ], [ -1, %1 ]
  ret i32 %.0
}